; Function Attrs: mustprogress uwtable
define hidden noundef ptr @_ZN11tbv_manager8allocateERK3tbvPKj(ptr noundef nonnull align 8 dereferenceable(552) %0, ptr noundef nonnull readonly align 4 captures(none) dereferenceable(4) %1, ptr noundef readonly captures(none) %2) local_unnamed_addr #5 align 2 {
  %4 = tail call noundef ptr @_ZN24fixed_bit_vector_manager8allocateEv(ptr noundef nonnull align 8 dereferenceable(552) %0)
  %5 = tail call noundef nonnull align 4 dereferenceable(4) ptr @_ZNK24fixed_bit_vector_manager5fill0ER16fixed_bit_vector(ptr noundef nonnull align 8 dereferenceable(552) %0, ptr noundef nonnull align 4 dereferenceable(4) %4)
  %6 = getelementptr inbounds nuw i8, ptr %0, i64 520
  %7 = load i32, ptr %6, align 8, !tbaa !16
  %.not = icmp ult i32 %7, 2
  br i1 %.not, label %._crit_edge, label %.lr.ph.preheader

.lr.ph.preheader:                                 ; preds = %3
  %8 = lshr i32 %7, 1
  %wide.trip.count = zext nneg i32 %8 to i64
  br label %.lr.ph

._crit_edge:                                      ; preds = %.lr.ph, %3
  ret ptr %4

.lr.ph:                                           ; preds = %.lr.ph.preheader, %.lr.ph
  %indvars.iv = phi i64 [ 0, %.lr.ph.preheader ], [ %indvars.iv.next, %.lr.ph ]
  %9 = getelementptr inbounds nuw i32, ptr %2, i64 %indvars.iv
  %10 = load i32, ptr %9, align 4, !tbaa !17
  %indvars.iv.tr = trunc i64 %indvars.iv to i32
  %11 = shl i32 %indvars.iv.tr, 1
  %12 = lshr i32 %11, 5
  %13 = zext nneg i32 %12 to i64
  %14 = getelementptr inbounds nuw [1 x i32], ptr %1, i64 0, i64 %13
  %15 = load i32, ptr %14, align 4, !tbaa !17
  %16 = and i32 %11, 30
  %17 = shl nuw nsw i32 1, %16
  %18 = and i32 %15, %17
  %.not.i.i = icmp ne i32 %18, 0
  %19 = shl nuw i32 2, %16
  %20 = and i32 %15, %19
  %21 = icmp ne i32 %20, 0
  %.neg = sext i1 %21 to i32
  %22 = shl i32 %10, 1
  %sext.i = sext i1 %.not.i.i to i32
  %23 = lshr i32 %22, 5
  %24 = zext nneg i32 %23 to i64
  %25 = getelementptr inbounds nuw [1 x i32], ptr %4, i64 0, i64 %24
  %26 = load i32, ptr %25, align 4, !tbaa !17
  %27 = xor i32 %26, %sext.i
  %28 = and i32 %22, 30
  %29 = shl nuw nsw i32 1, %28
  %30 = and i32 %27, %29
  %31 = xor i32 %26, %.neg
  %32 = shl nuw i32 2, %28
  %33 = and i32 %31, %32
  %34 = or disjoint i32 %30, %33
  %35 = xor i32 %34, %26
  store i32 %35, ptr %25, align 4, !tbaa !17
  %indvars.iv.next = add nuw nsw i64 %indvars.iv, 1
  %exitcond.not = icmp eq i64 %indvars.iv.next, %wide.trip.count
  br i1 %exitcond.not, label %._crit_edge, label %.lr.ph, !llvm.loop !21
}